target datalayout = "e-m:e-p270:32:32-p271:32:32-p272:64:64-i64:64-i128:128-f80:128-n8:16:32:64-S128"
target triple = "x86_64-pc-linux-gnu"

%"class.google::protobuf::internal::LogMessage" = type { i32, ptr, i32, %"class.std::__cxx11::basic_string" }
%"class.std::__cxx11::basic_string" = type { %"struct.std::__cxx11::basic_string<char>::_Alloc_hider", i64, %union.anon.0 }
%"struct.std::__cxx11::basic_string<char>::_Alloc_hider" = type { ptr }
%union.anon.0 = type { i64, [8 x i8] }
%"class.google::protobuf::internal::LogFinisher" = type { i8 }
%"struct.google::protobuf::internal::ExtensionSet::Extension" = type { %union.anon.4, i8, i8, i8, i8, i32, ptr }
%union.anon.4 = type { i64 }
%"class.google::protobuf::internal::RepeatedPtrFieldBase" = type { ptr, i32, i32, ptr }
%"struct.google::protobuf::internal::RepeatedPtrFieldBase::Rep" = type { i32, [268435454 x ptr] }

@.str = private unnamed_addr constant [43 x i8] c"third_party/protobuf-lite/extension_set.cc\00", align 1
@_ZN6google8protobuf8internal14WireFormatLite22kFieldTypeToCppTypeMapE = external constant [0 x i32], align 4
@.str.47 = private unnamed_addr constant [67 x i8] c"CHECK failed: type > 0 && type <= WireFormatLite::MAX_FIELD_TYPE: \00", align 1
@.str.54 = private unnamed_addr constant [66 x i8] c"src/../third_party/protobuf-lite/google/protobuf/repeated_field.h\00", align 1
@.str.69 = private unnamed_addr constant [27 x i8] c"CHECK failed: (n) >= (0): \00", align 1

; Function Attrs: mustprogress uwtable
define linkonce_odr void @_ZN6google8protobuf8internal18GenericTypeHandlerINS0_11MessageLiteEE5ClearEPS3_(ptr noundef %0) #6 comdat align 2 {
  %2 = alloca ptr, align 8
  store ptr %0, ptr %2, align 8
  %3 = load ptr, ptr %2, align 8
  %4 = load ptr, ptr %3, align 8
  %5 = getelementptr inbounds ptr, ptr %4, i64 5
  %6 = load ptr, ptr %5, align 8
  call void %6(ptr noundef nonnull align 8 dereferenceable(16) %3)
  ret void
}

; Function Attrs: mustprogress nounwind uwtable
define linkonce_odr noundef ptr @_ZN6google8protobuf8internal20RepeatedPtrFieldBase4castINS0_16RepeatedPtrFieldINS0_11MessageLiteEE11TypeHandlerEEEPNT_4TypeEPv(ptr noundef %0) #4 comdat align 2 {
  %2 = alloca ptr, align 8
  store ptr %0, ptr %2, align 8
  %3 = load ptr, ptr %2, align 8
  ret ptr %3
}

; Function Attrs: mustprogress uwtable
define linkonce_odr void @_ZN6google8protobuf8internal20RepeatedPtrFieldBase5ClearINS0_16RepeatedPtrFieldINS0_11MessageLiteEE11TypeHandlerEEEvv(ptr noundef nonnull align 8 dereferenceable(24) %0) #6 comdat align 2 personality ptr @__gxx_personality_v0 {
  %2 = alloca ptr, align 8
  %3 = alloca i32, align 4
  %4 = alloca %"class.google::protobuf::internal::LogMessage", align 8
  %5 = alloca i1, align 1
  %6 = alloca ptr, align 8
  %7 = alloca i32, align 4
  %8 = alloca %"class.google::protobuf::internal::LogFinisher", align 1
  %9 = alloca ptr, align 8
  %10 = alloca i32, align 4
  store ptr %0, ptr %2, align 8
  %11 = load ptr, ptr %2, align 8
  %12 = getelementptr inbounds %"class.google::protobuf::internal::RepeatedPtrFieldBase", ptr %11, i32 0, i32 1
  %13 = load i32, ptr %12, align 8
  store i32 %13, ptr %3, align 4
  br label %14

14:                                               ; preds = %26, %1
  br i1 false, label %15, label %34

15:                                               ; preds = %14
  %16 = load i32, ptr %3, align 4
  %17 = icmp sge i32 %16, 0
  store i1 false, ptr %5, align 1
  br i1 %17, label %18, label %19

18:                                               ; preds = %15
  br label %23

19:                                               ; preds = %15
  call void @_ZN6google8protobuf8internal10LogMessageC1ENS0_8LogLevelEPKci(ptr noundef nonnull align 8 dereferenceable(56) %4, i32 noundef 3, ptr noundef @.str.54, i32 noundef 1780)
  store i1 true, ptr %5, align 1
  %20 = invoke noundef nonnull align 8 dereferenceable(56) ptr @_ZN6google8protobuf8internal10LogMessagelsEPKc(ptr noundef nonnull align 8 dereferenceable(56) %4, ptr noundef @.str.69)
          to label %21 unwind label %27

21:                                               ; preds = %19
  invoke void @_ZN6google8protobuf8internal11LogFinisheraSERNS1_10LogMessageE(ptr noundef nonnull align 1 dereferenceable(1) %8, ptr noundef nonnull align 8 dereferenceable(56) %20)
          to label %22 unwind label %27

22:                                               ; preds = %21
  br label %23

23:                                               ; preds = %22, %18
  %24 = load i1, ptr %5, align 1
  br i1 %24, label %25, label %26

25:                                               ; preds = %23
  call void @_ZN6google8protobuf8internal10LogMessageD1Ev(ptr noundef nonnull align 8 dereferenceable(56) %4) #3
  br label %26

26:                                               ; preds = %25, %23
  br label %14, !llvm.loop !272

27:                                               ; preds = %21, %19
  %28 = landingpad { ptr, i32 }
          cleanup
  %29 = extractvalue { ptr, i32 } %28, 0
  store ptr %29, ptr %6, align 8
  %30 = extractvalue { ptr, i32 } %28, 1
  store i32 %30, ptr %7, align 4
  %31 = load i1, ptr %5, align 1
  br i1 %31, label %32, label %33

32:                                               ; preds = %27
  call void @_ZN6google8protobuf8internal10LogMessageD1Ev(ptr noundef nonnull align 8 dereferenceable(56) %4) #3
  br label %33

33:                                               ; preds = %32, %27
  br label %57

34:                                               ; preds = %14
  %35 = load i32, ptr %3, align 4
  %36 = icmp sgt i32 %35, 0
  br i1 %36, label %37, label %56

37:                                               ; preds = %34
  %38 = getelementptr inbounds %"class.google::protobuf::internal::RepeatedPtrFieldBase", ptr %11, i32 0, i32 3
  %39 = load ptr, ptr %38, align 8
  %40 = getelementptr inbounds %"struct.google::protobuf::internal::RepeatedPtrFieldBase::Rep", ptr %39, i32 0, i32 1
  %41 = getelementptr inbounds [268435454 x ptr], ptr %40, i64 0, i64 0
  store ptr %41, ptr %9, align 8
  store i32 0, ptr %10, align 4
  br label %42

42:                                               ; preds = %50, %37
  %43 = load ptr, ptr %9, align 8
  %44 = load i32, ptr %10, align 4
  %45 = add nsw i32 %44, 1
  store i32 %45, ptr %10, align 4
  %46 = sext i32 %44 to i64
  %47 = getelementptr inbounds ptr, ptr %43, i64 %46
  %48 = load ptr, ptr %47, align 8
  %49 = call noundef ptr @_ZN6google8protobuf8internal20RepeatedPtrFieldBase4castINS0_16RepeatedPtrFieldINS0_11MessageLiteEE11TypeHandlerEEEPNT_4TypeEPv(ptr noundef %48)
  call void @_ZN6google8protobuf8internal18GenericTypeHandlerINS0_11MessageLiteEE5ClearEPS3_(ptr noundef %49)
  br label %50

50:                                               ; preds = %42
  %51 = load i32, ptr %10, align 4
  %52 = load i32, ptr %3, align 4
  %53 = icmp slt i32 %51, %52
  br i1 %53, label %42, label %54, !llvm.loop !273

54:                                               ; preds = %50
  %55 = getelementptr inbounds %"class.google::protobuf::internal::RepeatedPtrFieldBase", ptr %11, i32 0, i32 1
  store i32 0, ptr %55, align 8
  br label %56

56:                                               ; preds = %54, %34
  ret void

57:                                               ; preds = %33
  %58 = load ptr, ptr %6, align 8
  %59 = load i32, ptr %7, align 4
  %60 = insertvalue { ptr, i32 } poison, ptr %58, 0
  %61 = insertvalue { ptr, i32 } %60, i32 %59, 1
  resume { ptr, i32 } %61
}

; Function Attrs: mustprogress nounwind uwtable
define linkonce_odr noundef i32 @_ZN6google8protobuf8internal14WireFormatLite18FieldTypeToCppTypeENS2_9FieldTypeE(i32 noundef %0) #4 comdat align 2 {
  %2 = alloca i32, align 4
  store i32 %0, ptr %2, align 4
  %3 = load i32, ptr %2, align 4
  %4 = zext i32 %3 to i64
  %5 = getelementptr inbounds [0 x i32], ptr @_ZN6google8protobuf8internal14WireFormatLite22kFieldTypeToCppTypeMapE, i64 0, i64 %4
  %6 = load i32, ptr %5, align 4
  ret i32 %6
}

; Function Attrs: mustprogress uwtable
define internal noundef i32 @_ZN6google8protobuf8internal12_GLOBAL__N_19real_typeEh(i8 noundef zeroext %0) #6 personality ptr @__gxx_personality_v0 {
  %2 = alloca i8, align 1
  %3 = alloca %"class.google::protobuf::internal::LogMessage", align 8
  %4 = alloca i1, align 1
  %5 = alloca ptr, align 8
  %6 = alloca i32, align 4
  %7 = alloca %"class.google::protobuf::internal::LogFinisher", align 1
  store i8 %0, ptr %2, align 1
  br label %8

8:                                                ; preds = %25, %1
  br i1 false, label %9, label %33

9:                                                ; preds = %8
  %10 = load i8, ptr %2, align 1
  %11 = zext i8 %10 to i32
  %12 = icmp sgt i32 %11, 0
  store i1 false, ptr %4, align 1
  br i1 %12, label %13, label %18

13:                                               ; preds = %9
  %14 = load i8, ptr %2, align 1
  %15 = zext i8 %14 to i32
  %16 = icmp sle i32 %15, 18
  br i1 %16, label %17, label %18

17:                                               ; preds = %13
  br label %22

18:                                               ; preds = %13, %9
  call void @_ZN6google8protobuf8internal10LogMessageC1ENS0_8LogLevelEPKci(ptr noundef nonnull align 8 dereferenceable(56) %3, i32 noundef 3, ptr noundef @.str, i32 noundef 60)
  store i1 true, ptr %4, align 1
  %19 = invoke noundef nonnull align 8 dereferenceable(56) ptr @_ZN6google8protobuf8internal10LogMessagelsEPKc(ptr noundef nonnull align 8 dereferenceable(56) %3, ptr noundef @.str.47)
          to label %20 unwind label %26

20:                                               ; preds = %18
  invoke void @_ZN6google8protobuf8internal11LogFinisheraSERNS1_10LogMessageE(ptr noundef nonnull align 1 dereferenceable(1) %7, ptr noundef nonnull align 8 dereferenceable(56) %19)
          to label %21 unwind label %26

21:                                               ; preds = %20
  br label %22

22:                                               ; preds = %21, %17
  %23 = load i1, ptr %4, align 1
  br i1 %23, label %24, label %25

24:                                               ; preds = %22
  call void @_ZN6google8protobuf8internal10LogMessageD1Ev(ptr noundef nonnull align 8 dereferenceable(56) %3) #3
  br label %25

25:                                               ; preds = %24, %22
  br label %8, !llvm.loop !163

26:                                               ; preds = %20, %18
  %27 = landingpad { ptr, i32 }
          cleanup
  %28 = extractvalue { ptr, i32 } %27, 0
  store ptr %28, ptr %5, align 8
  %29 = extractvalue { ptr, i32 } %27, 1
  store i32 %29, ptr %6, align 4
  %30 = load i1, ptr %4, align 1
  br i1 %30, label %31, label %32

31:                                               ; preds = %26
  call void @_ZN6google8protobuf8internal10LogMessageD1Ev(ptr noundef nonnull align 8 dereferenceable(56) %3) #3
  br label %32

32:                                               ; preds = %31, %26
  br label %36

33:                                               ; preds = %8
  %34 = load i8, ptr %2, align 1
  %35 = zext i8 %34 to i32
  ret i32 %35

36:                                               ; preds = %32
  %37 = load ptr, ptr %5, align 8
  %38 = load i32, ptr %6, align 4
  %39 = insertvalue { ptr, i32 } poison, ptr %37, 0
  %40 = insertvalue { ptr, i32 } %39, i32 %38, 1
  resume { ptr, i32 } %40
}

; Function Attrs: mustprogress uwtable
define linkonce_odr void @_ZN6google8protobuf16RepeatedPtrFieldINS0_11MessageLiteEE5ClearEv(ptr noundef nonnull align 8 dereferenceable(24) %0) #6 comdat align 2 {
  %2 = alloca ptr, align 8
  store ptr %0, ptr %2, align 8
  %3 = load ptr, ptr %2, align 8
  call void @_ZN6google8protobuf8internal20RepeatedPtrFieldBase5ClearINS0_16RepeatedPtrFieldINS0_11MessageLiteEE11TypeHandlerEEEvv(ptr noundef nonnull align 8 dereferenceable(24) %3)
  ret void
}

; Function Attrs: mustprogress uwtable
define internal noundef i32 @_ZN6google8protobuf8internal12_GLOBAL__N_18cpp_typeEh(i8 noundef zeroext %0) #6 {
  %2 = alloca i8, align 1
  store i8 %0, ptr %2, align 1
  %3 = load i8, ptr %2, align 1
  %4 = call noundef i32 @_ZN6google8protobuf8internal12_GLOBAL__N_19real_typeEh(i8 noundef zeroext %3)
  %5 = call noundef i32 @_ZN6google8protobuf8internal14WireFormatLite18FieldTypeToCppTypeENS2_9FieldTypeE(i32 noundef %4)
  ret i32 %5
}

; Function Attrs: mustprogress uwtable
define void @_ZN6google8protobuf8internal12ExtensionSet9Extension5ClearEv(ptr noundef nonnull align 8 dereferenceable(24) %0) #6 align 2 {
  %2 = alloca ptr, align 8
  store ptr %0, ptr %2, align 8
  %3 = load ptr, ptr %2, align 8
  %4 = getelementptr inbounds %"struct.google::protobuf::internal::ExtensionSet::Extension", ptr %3, i32 0, i32 2
  %5 = load i8, ptr %4, align 1
  %6 = trunc i8 %5 to i1
  br i1 %6, label %7, label %42

7:                                                ; preds = %1
  %8 = getelementptr inbounds %"struct.google::protobuf::internal::ExtensionSet::Extension", ptr %3, i32 0, i32 1
  %9 = load i8, ptr %8, align 8
  %10 = call noundef i32 @_ZN6google8protobuf8internal12_GLOBAL__N_18cpp_typeEh(i8 noundef zeroext %9)
  switch i32 %10, label %41 [
    i32 1, label %11
    i32 2, label %14
    i32 3, label %17
    i32 4, label %20
    i32 6, label %23
    i32 5, label %26
    i32 7, label %29
    i32 8, label %32
    i32 9, label %35
    i32 10, label %38
  ]

11:                                               ; preds = %7
  %12 = getelementptr inbounds %"struct.google::protobuf::internal::ExtensionSet::Extension", ptr %3, i32 0, i32 0
  %13 = load ptr, ptr %12, align 8
  call void @_ZN6google8protobuf13RepeatedFieldIiE5ClearEv(ptr noundef nonnull align 8 dereferenceable(16) %13)
  br label %41

14:                                               ; preds = %7
  %15 = getelementptr inbounds %"struct.google::protobuf::internal::ExtensionSet::Extension", ptr %3, i32 0, i32 0
  %16 = load ptr, ptr %15, align 8
  call void @_ZN6google8protobuf13RepeatedFieldIlE5ClearEv(ptr noundef nonnull align 8 dereferenceable(16) %16)
  br label %41

17:                                               ; preds = %7
  %18 = getelementptr inbounds %"struct.google::protobuf::internal::ExtensionSet::Extension", ptr %3, i32 0, i32 0
  %19 = load ptr, ptr %18, align 8
  call void @_ZN6google8protobuf13RepeatedFieldIjE5ClearEv(ptr noundef nonnull align 8 dereferenceable(16) %19)
  br label %41

20:                                               ; preds = %7
  %21 = getelementptr inbounds %"struct.google::protobuf::internal::ExtensionSet::Extension", ptr %3, i32 0, i32 0
  %22 = load ptr, ptr %21, align 8
  call void @_ZN6google8protobuf13RepeatedFieldImE5ClearEv(ptr noundef nonnull align 8 dereferenceable(16) %22)
  br label %41

23:                                               ; preds = %7
  %24 = getelementptr inbounds %"struct.google::protobuf::internal::ExtensionSet::Extension", ptr %3, i32 0, i32 0
  %25 = load ptr, ptr %24, align 8
  call void @_ZN6google8protobuf13RepeatedFieldIfE5ClearEv(ptr noundef nonnull align 8 dereferenceable(16) %25)
  br label %41

26:                                               ; preds = %7
  %27 = getelementptr inbounds %"struct.google::protobuf::internal::ExtensionSet::Extension", ptr %3, i32 0, i32 0
  %28 = load ptr, ptr %27, align 8
  call void @_ZN6google8protobuf13RepeatedFieldIdE5ClearEv(ptr noundef nonnull align 8 dereferenceable(16) %28)
  br label %41

29:                                               ; preds = %7
  %30 = getelementptr inbounds %"struct.google::protobuf::internal::ExtensionSet::Extension", ptr %3, i32 0, i32 0
  %31 = load ptr, ptr %30, align 8
  call void @_ZN6google8protobuf13RepeatedFieldIbE5ClearEv(ptr noundef nonnull align 8 dereferenceable(16) %31)
  br label %41

32:                                               ; preds = %7
  %33 = getelementptr inbounds %"struct.google::protobuf::internal::ExtensionSet::Extension", ptr %3, i32 0, i32 0
  %34 = load ptr, ptr %33, align 8
  call void @_ZN6google8protobuf13RepeatedFieldIiE5ClearEv(ptr noundef nonnull align 8 dereferenceable(16) %34)
  br label %41

35:                                               ; preds = %7
  %36 = getelementptr inbounds %"struct.google::protobuf::internal::ExtensionSet::Extension", ptr %3, i32 0, i32 0
  %37 = load ptr, ptr %36, align 8
  call void @_ZN6google8protobuf16RepeatedPtrFieldINSt7__cxx1112basic_stringIcSt11char_traitsIcESaIcEEEE5ClearEv(ptr noundef nonnull align 8 dereferenceable(24) %37)
  br label %41

38:                                               ; preds = %7
  %39 = getelementptr inbounds %"struct.google::protobuf::internal::ExtensionSet::Extension", ptr %3, i32 0, i32 0
  %40 = load ptr, ptr %39, align 8
  call void @_ZN6google8protobuf16RepeatedPtrFieldINS0_11MessageLiteEE5ClearEv(ptr noundef nonnull align 8 dereferenceable(24) %40)
  br label %41

41:                                               ; preds = %38, %35, %32, %29, %26, %23, %20, %17, %14, %11, %7
  br label %79

42:                                               ; preds = %1
  %43 = getelementptr inbounds %"struct.google::protobuf::internal::ExtensionSet::Extension", ptr %3, i32 0, i32 3
  %44 = load i8, ptr %43, align 2
  %45 = and i8 %44, 15
  %46 = trunc i8 %45 to i1
  br i1 %46, label %78, label %47

47:                                               ; preds = %42
  %48 = getelementptr inbounds %"struct.google::protobuf::internal::ExtensionSet::Extension", ptr %3, i32 0, i32 1
  %49 = load i8, ptr %48, align 8
  %50 = call noundef i32 @_ZN6google8protobuf8internal12_GLOBAL__N_18cpp_typeEh(i8 noundef zeroext %49)
  switch i32 %50, label %72 [
    i32 9, label %51
    i32 10, label %54
  ]

51:                                               ; preds = %47
  %52 = getelementptr inbounds %"struct.google::protobuf::internal::ExtensionSet::Extension", ptr %3, i32 0, i32 0
  %53 = load ptr, ptr %52, align 8
  call void @_ZNSt7__cxx1112basic_stringIcSt11char_traitsIcESaIcEE5clearEv(ptr noundef nonnull align 8 dereferenceable(32) %53) #3
  br label %73

54:                                               ; preds = %47
  %55 = getelementptr inbounds %"struct.google::protobuf::internal::ExtensionSet::Extension", ptr %3, i32 0, i32 3
  %56 = load i8, ptr %55, align 2
  %57 = lshr i8 %56, 4
  %58 = trunc i8 %57 to i1
  br i1 %58, label %59, label %65

59:                                               ; preds = %54
  %60 = getelementptr inbounds %"struct.google::protobuf::internal::ExtensionSet::Extension", ptr %3, i32 0, i32 0
  %61 = load ptr, ptr %60, align 8
  %62 = load ptr, ptr %61, align 8
  %63 = getelementptr inbounds ptr, ptr %62, i64 14
  %64 = load ptr, ptr %63, align 8
  call void %64(ptr noundef nonnull align 8 dereferenceable(8) %61)
  br label %71

65:                                               ; preds = %54
  %66 = getelementptr inbounds %"struct.google::protobuf::internal::ExtensionSet::Extension", ptr %3, i32 0, i32 0
  %67 = load ptr, ptr %66, align 8
  %68 = load ptr, ptr %67, align 8
  %69 = getelementptr inbounds ptr, ptr %68, i64 5
  %70 = load ptr, ptr %69, align 8
  call void %70(ptr noundef nonnull align 8 dereferenceable(16) %67)
  br label %71

71:                                               ; preds = %65, %59
  br label %73

72:                                               ; preds = %47
  br label %73

73:                                               ; preds = %72, %71, %51
  %74 = getelementptr inbounds %"struct.google::protobuf::internal::ExtensionSet::Extension", ptr %3, i32 0, i32 3
  %75 = load i8, ptr %74, align 2
  %76 = and i8 %75, -16
  %77 = or i8 %76, 1
  store i8 %77, ptr %74, align 2
  br label %78

78:                                               ; preds = %73, %42
  br label %79

79:                                               ; preds = %78, %41
  ret void
}