; Function Attrs: mustprogress uwtable
define void @_ZN6google8protobuf8internal12ExtensionSet9Extension5ClearEv(ptr nocapture noundef nonnull align 8 dereferenceable(24) %0) local_unnamed_addr #8 align 2 personality ptr @__gxx_personality_v0 {
  %2 = getelementptr inbounds i8, ptr %0, i64 9
  %3 = load i8, ptr %2, align 1
  %4 = trunc i8 %3 to i1
  br i1 %4, label %5, label %45

5:                                                ; preds = %1
  %6 = getelementptr inbounds i8, ptr %0, i64 8
  %7 = load i8, ptr %6, align 8
  %8 = zext i8 %7 to i64
  %9 = getelementptr inbounds [0 x i32], ptr @_ZN6google8protobuf8internal14WireFormatLite22kFieldTypeToCppTypeMapE, i64 0, i64 %8
  %10 = load i32, ptr %9, align 4
  switch i32 %10, label %_ZN6google8protobuf16RepeatedPtrFieldINS0_11MessageLiteEE5ClearEv.exit [
    i32 1, label %11
    i32 2, label %13
    i32 3, label %15
    i32 4, label %17
    i32 6, label %19
    i32 5, label %21
    i32 7, label %23
    i32 8, label %25
    i32 9, label %27
    i32 10, label %29
  ]

11:                                               ; preds = %5
  %12 = load ptr, ptr %0, align 8
  tail call void @_ZN6google8protobuf13RepeatedFieldIiE5ClearEv(ptr noundef nonnull align 8 dereferenceable(16) %12)
  br label %_ZN6google8protobuf16RepeatedPtrFieldINS0_11MessageLiteEE5ClearEv.exit

13:                                               ; preds = %5
  %14 = load ptr, ptr %0, align 8
  tail call void @_ZN6google8protobuf13RepeatedFieldIlE5ClearEv(ptr noundef nonnull align 8 dereferenceable(16) %14)
  br label %_ZN6google8protobuf16RepeatedPtrFieldINS0_11MessageLiteEE5ClearEv.exit

15:                                               ; preds = %5
  %16 = load ptr, ptr %0, align 8
  tail call void @_ZN6google8protobuf13RepeatedFieldIjE5ClearEv(ptr noundef nonnull align 8 dereferenceable(16) %16)
  br label %_ZN6google8protobuf16RepeatedPtrFieldINS0_11MessageLiteEE5ClearEv.exit

17:                                               ; preds = %5
  %18 = load ptr, ptr %0, align 8
  tail call void @_ZN6google8protobuf13RepeatedFieldImE5ClearEv(ptr noundef nonnull align 8 dereferenceable(16) %18)
  br label %_ZN6google8protobuf16RepeatedPtrFieldINS0_11MessageLiteEE5ClearEv.exit

19:                                               ; preds = %5
  %20 = load ptr, ptr %0, align 8
  tail call void @_ZN6google8protobuf13RepeatedFieldIfE5ClearEv(ptr noundef nonnull align 8 dereferenceable(16) %20)
  br label %_ZN6google8protobuf16RepeatedPtrFieldINS0_11MessageLiteEE5ClearEv.exit

21:                                               ; preds = %5
  %22 = load ptr, ptr %0, align 8
  tail call void @_ZN6google8protobuf13RepeatedFieldIdE5ClearEv(ptr noundef nonnull align 8 dereferenceable(16) %22)
  br label %_ZN6google8protobuf16RepeatedPtrFieldINS0_11MessageLiteEE5ClearEv.exit

23:                                               ; preds = %5
  %24 = load ptr, ptr %0, align 8
  tail call void @_ZN6google8protobuf13RepeatedFieldIbE5ClearEv(ptr noundef nonnull align 8 dereferenceable(16) %24)
  br label %_ZN6google8protobuf16RepeatedPtrFieldINS0_11MessageLiteEE5ClearEv.exit

25:                                               ; preds = %5
  %26 = load ptr, ptr %0, align 8
  tail call void @_ZN6google8protobuf13RepeatedFieldIiE5ClearEv(ptr noundef nonnull align 8 dereferenceable(16) %26)
  br label %_ZN6google8protobuf16RepeatedPtrFieldINS0_11MessageLiteEE5ClearEv.exit

27:                                               ; preds = %5
  %28 = load ptr, ptr %0, align 8
  tail call void @_ZN6google8protobuf16RepeatedPtrFieldINSt7__cxx1112basic_stringIcSt11char_traitsIcESaIcEEEE5ClearEv(ptr noundef nonnull align 8 dereferenceable(24) %28)
  br label %_ZN6google8protobuf16RepeatedPtrFieldINS0_11MessageLiteEE5ClearEv.exit

29:                                               ; preds = %5
  %30 = load ptr, ptr %0, align 8
  %31 = getelementptr inbounds i8, ptr %30, i64 8
  %32 = load i32, ptr %31, align 8
  %33 = icmp sgt i32 %32, 0
  br i1 %33, label %34, label %_ZN6google8protobuf16RepeatedPtrFieldINS0_11MessageLiteEE5ClearEv.exit

34:                                               ; preds = %29
  %35 = getelementptr inbounds i8, ptr %30, i64 16
  %36 = load ptr, ptr %35, align 8
  %37 = getelementptr inbounds i8, ptr %36, i64 8
  %wide.trip.count.i.i = zext nneg i32 %32 to i64
  br label %38

38:                                               ; preds = %38, %34
  %indvars.iv.i.i = phi i64 [ %indvars.iv.next.i.i, %38 ], [ 0, %34 ]
  %indvars.iv.next.i.i = add nuw nsw i64 %indvars.iv.i.i, 1
  %39 = getelementptr inbounds ptr, ptr %37, i64 %indvars.iv.i.i
  %40 = load ptr, ptr %39, align 8
  %41 = load ptr, ptr %40, align 8
  %42 = getelementptr inbounds i8, ptr %41, i64 40
  %43 = load ptr, ptr %42, align 8
  tail call void %43(ptr noundef nonnull align 8 dereferenceable(16) %40)
  %exitcond.not.i.i = icmp eq i64 %indvars.iv.next.i.i, %wide.trip.count.i.i
  br i1 %exitcond.not.i.i, label %44, label %38, !llvm.loop !18

44:                                               ; preds = %38
  store i32 0, ptr %31, align 8
  br label %_ZN6google8protobuf16RepeatedPtrFieldINS0_11MessageLiteEE5ClearEv.exit

45:                                               ; preds = %1
  %46 = getelementptr inbounds i8, ptr %0, i64 10
  %47 = load i8, ptr %46, align 2
  %48 = trunc i8 %47 to i1
  br i1 %48, label %_ZN6google8protobuf16RepeatedPtrFieldINS0_11MessageLiteEE5ClearEv.exit, label %49

49:                                               ; preds = %45
  %50 = getelementptr inbounds i8, ptr %0, i64 8
  %51 = load i8, ptr %50, align 8
  %52 = zext i8 %51 to i64
  %53 = getelementptr inbounds [0 x i32], ptr @_ZN6google8protobuf8internal14WireFormatLite22kFieldTypeToCppTypeMapE, i64 0, i64 %52
  %54 = load i32, ptr %53, align 4
  switch i32 %54, label %67 [
    i32 9, label %55
    i32 10, label %57
  ]

55:                                               ; preds = %49
  %56 = load ptr, ptr %0, align 8
  tail call void @_ZNSt7__cxx1112basic_stringIcSt11char_traitsIcESaIcEE5clearEv(ptr noundef nonnull align 8 dereferenceable(32) %56) #23
  br label %67

57:                                               ; preds = %49
  %58 = and i8 %47, 16
  %.not = icmp eq i8 %58, 0
  %59 = load ptr, ptr %0, align 8
  %60 = load ptr, ptr %59, align 8
  br i1 %.not, label %64, label %61

61:                                               ; preds = %57
  %62 = getelementptr inbounds i8, ptr %60, i64 112
  %63 = load ptr, ptr %62, align 8
  tail call void %63(ptr noundef nonnull align 8 dereferenceable(8) %59)
  br label %67

64:                                               ; preds = %57
  %65 = getelementptr inbounds i8, ptr %60, i64 40
  %66 = load ptr, ptr %65, align 8
  tail call void %66(ptr noundef nonnull align 8 dereferenceable(16) %59)
  br label %67

67:                                               ; preds = %49, %61, %64, %55
  %68 = load i8, ptr %46, align 2
  %69 = and i8 %68, -16
  %70 = or disjoint i8 %69, 1
  store i8 %70, ptr %46, align 2
  br label %_ZN6google8protobuf16RepeatedPtrFieldINS0_11MessageLiteEE5ClearEv.exit

_ZN6google8protobuf16RepeatedPtrFieldINS0_11MessageLiteEE5ClearEv.exit: ; preds = %44, %29, %45, %67, %5, %11, %13, %15, %17, %19, %21, %23, %25, %27
  ret void
}